(dp0
S'2.jpg'
p1
(lp2
(I108
I92
tp3
a(I145
I88
tp4
asS'6.jpg'
p5
(lp6
(I169
I133
tp7
a(I222
I126
tp8
asS'4.jpg'
p9
(lp10
(I146
I174
tp11
a(I211
I180
tp12
asS'5.jpg'
p13
(lp14
(I230
I121
tp15
a(I279
I114
tp16
asS'3.jpg'
p17
(lp18
(I173
I201
tp19
a(I246
I193
tp20
asS'1.jpg'
p21
(lp22
(I104
I132
tp23
a(I152
I124
tp24
as.